target datalayout = "e-m:e-p270:32:32-p271:32:32-p272:64:64-i64:64-i128:128-f80:128-n8:16:32:64-S128"
target triple = "x86_64-pc-linux-gnu"

%struct.black_TWorker_ = type { i32, i32, i32, i32, i32, ptr, ptr, ptr, ptr, i32, i8, i64, i64, i64, i64, i16, i32, ptr, ptr, ptr, i32, %struct.FT_Outline_, i32, i32, i32, ptr, ptr, ptr, ptr, ptr, ptr }
%struct.FT_Outline_ = type { i16, i16, ptr, ptr, ptr, i32 }

; Function Attrs: nounwind uwtable
define internal void @Vertical_Sweep_Drop(ptr noundef %0, i32 noundef %1, i64 noundef %2, i64 noundef %3) #0 {
  %5 = alloca ptr, align 8
  %6 = alloca i32, align 4
  %7 = alloca i64, align 8
  %8 = alloca i64, align 8
  %9 = alloca i32, align 4
  %10 = alloca i32, align 4
  %11 = alloca i32, align 4
  %12 = alloca i32, align 4
  %13 = alloca i32, align 4
  store ptr %0, ptr %5, align 8, !tbaa !105
  store i32 %1, ptr %6, align 4, !tbaa !15
  store i64 %2, ptr %7, align 8, !tbaa !23
  store i64 %3, ptr %8, align 8, !tbaa !23
  call void @llvm.lifetime.start.p0(i64 4, ptr %9) #5
  %14 = load i64, ptr %7, align 8, !tbaa !23
  %15 = load ptr, ptr %5, align 8, !tbaa !105
  %16 = getelementptr inbounds nuw %struct.black_TWorker_, ptr %15, i32 0, i32 0
  %17 = load i32, ptr %16, align 8, !tbaa !115
  %18 = zext i32 %17 to i64
  %19 = ashr i64 %14, %18
  %20 = trunc i64 %19 to i32
  store i32 %20, ptr %9, align 4, !tbaa !15
  call void @llvm.lifetime.start.p0(i64 4, ptr %10) #5
  %21 = load i64, ptr %8, align 8, !tbaa !23
  %22 = load ptr, ptr %5, align 8, !tbaa !105
  %23 = getelementptr inbounds nuw %struct.black_TWorker_, ptr %22, i32 0, i32 0
  %24 = load i32, ptr %23, align 8, !tbaa !115
  %25 = zext i32 %24 to i64
  %26 = ashr i64 %21, %25
  %27 = trunc i64 %26 to i32
  store i32 %27, ptr %10, align 4, !tbaa !15
  call void @llvm.lifetime.start.p0(i64 4, ptr %11) #5
  call void @llvm.lifetime.start.p0(i64 4, ptr %12) #5
  %28 = load i32, ptr %6, align 4, !tbaa !15
  store i32 %28, ptr %6, align 4, !tbaa !15
  %29 = load i32, ptr %9, align 4, !tbaa !15
  %30 = icmp slt i32 %29, 0
  br i1 %30, label %37, label %31

31:                                               ; preds = %4
  %32 = load i32, ptr %9, align 4, !tbaa !15
  %33 = load ptr, ptr %5, align 8, !tbaa !105
  %34 = getelementptr inbounds nuw %struct.black_TWorker_, ptr %33, i32 0, i32 23
  %35 = load i32, ptr %34, align 4, !tbaa !56
  %36 = icmp sgt i32 %32, %35
  br i1 %36, label %37, label %39

37:                                               ; preds = %31, %4
  %38 = load i32, ptr %10, align 4, !tbaa !15
  store i32 %38, ptr %9, align 4, !tbaa !15
  br label %68

39:                                               ; preds = %31
  %40 = load i32, ptr %10, align 4, !tbaa !15
  %41 = icmp sge i32 %40, 0
  br i1 %41, label %42, label %67

42:                                               ; preds = %39
  %43 = load i32, ptr %10, align 4, !tbaa !15
  %44 = load ptr, ptr %5, align 8, !tbaa !105
  %45 = getelementptr inbounds nuw %struct.black_TWorker_, ptr %44, i32 0, i32 23
  %46 = load i32, ptr %45, align 4, !tbaa !56
  %47 = icmp sle i32 %43, %46
  br i1 %47, label %48, label %67

48:                                               ; preds = %42
  %49 = load i32, ptr %10, align 4, !tbaa !15
  %50 = ashr i32 %49, 3
  store i32 %50, ptr %11, align 4, !tbaa !15
  %51 = load i32, ptr %10, align 4, !tbaa !15
  %52 = and i32 %51, 7
  %53 = ashr i32 128, %52
  store i32 %53, ptr %12, align 4, !tbaa !15
  %54 = load ptr, ptr %5, align 8, !tbaa !105
  %55 = getelementptr inbounds nuw %struct.black_TWorker_, ptr %54, i32 0, i32 26
  %56 = load ptr, ptr %55, align 8, !tbaa !120
  %57 = load i32, ptr %11, align 4, !tbaa !15
  %58 = sext i32 %57 to i64
  %59 = getelementptr inbounds i8, ptr %56, i64 %58
  %60 = load i8, ptr %59, align 1, !tbaa !121
  %61 = zext i8 %60 to i32
  %62 = load i32, ptr %12, align 4, !tbaa !15
  %63 = and i32 %61, %62
  %64 = icmp ne i32 %63, 0
  br i1 %64, label %65, label %66

65:                                               ; preds = %48
  store i32 1, ptr %13, align 4
  br label %98

66:                                               ; preds = %48
  br label %67

67:                                               ; preds = %66, %42, %39
  br label %68

68:                                               ; preds = %67, %37
  %69 = load i32, ptr %9, align 4, !tbaa !15
  %70 = icmp sge i32 %69, 0
  br i1 %70, label %71, label %97

71:                                               ; preds = %68
  %72 = load i32, ptr %9, align 4, !tbaa !15
  %73 = load ptr, ptr %5, align 8, !tbaa !105
  %74 = getelementptr inbounds nuw %struct.black_TWorker_, ptr %73, i32 0, i32 23
  %75 = load i32, ptr %74, align 4, !tbaa !56
  %76 = icmp sle i32 %72, %75
  br i1 %76, label %77, label %97

77:                                               ; preds = %71
  %78 = load i32, ptr %9, align 4, !tbaa !15
  %79 = ashr i32 %78, 3
  store i32 %79, ptr %11, align 4, !tbaa !15
  %80 = load i32, ptr %9, align 4, !tbaa !15
  %81 = and i32 %80, 7
  %82 = ashr i32 128, %81
  store i32 %82, ptr %12, align 4, !tbaa !15
  br label %83

83:                                               ; preds = %77
  br label %84

84:                                               ; preds = %83
  br label %85

85:                                               ; preds = %84
  %86 = load i32, ptr %12, align 4, !tbaa !15
  %87 = load ptr, ptr %5, align 8, !tbaa !105
  %88 = getelementptr inbounds nuw %struct.black_TWorker_, ptr %87, i32 0, i32 26
  %89 = load ptr, ptr %88, align 8, !tbaa !120
  %90 = load i32, ptr %11, align 4, !tbaa !15
  %91 = sext i32 %90 to i64
  %92 = getelementptr inbounds i8, ptr %89, i64 %91
  %93 = load i8, ptr %92, align 1, !tbaa !121
  %94 = zext i8 %93 to i32
  %95 = or i32 %94, %86
  %96 = trunc i32 %95 to i8
  store i8 %96, ptr %92, align 1, !tbaa !121
  br label %97

97:                                               ; preds = %85, %71, %68
  store i32 0, ptr %13, align 4
  br label %98

98:                                               ; preds = %97, %65
  call void @llvm.lifetime.end.p0(i64 4, ptr %12) #5
  call void @llvm.lifetime.end.p0(i64 4, ptr %11) #5
  call void @llvm.lifetime.end.p0(i64 4, ptr %10) #5
  call void @llvm.lifetime.end.p0(i64 4, ptr %9) #5
  %99 = load i32, ptr %13, align 4
  switch i32 %99, label %101 [
    i32 0, label %100
    i32 1, label %100
  ]

100:                                              ; preds = %98, %98
  ret void

101:                                              ; preds = %98
  unreachable
}