; Function Attrs: mustprogress nofree norecurse nosync nounwind willreturn memory(readwrite, inaccessiblemem: none) uwtable
define internal void @Vertical_Sweep_Drop(ptr noundef readonly captures(none) %0, i32 %1, i64 noundef %2, i64 noundef %3) #6 {
  %5 = load i32, ptr %0, align 8, !tbaa !86
  %6 = zext i32 %5 to i64
  %7 = ashr i64 %2, %6
  %8 = trunc i64 %7 to i32
  %9 = ashr i64 %3, %6
  %10 = trunc i64 %9 to i32
  %11 = icmp slt i32 %8, 0
  br i1 %11, label %29, label %12

12:                                               ; preds = %4
  %13 = getelementptr inbounds nuw i8, ptr %0, i64 180
  %14 = load i32, ptr %13, align 4, !tbaa !41
  %15 = icmp slt i32 %14, %8
  br i1 %15, label %29, label %16

16:                                               ; preds = %12
  %17 = icmp slt i32 %10, 0
  %.not = icmp slt i32 %14, %10
  %or.cond = or i1 %17, %.not
  br i1 %or.cond, label %.thread, label %18

18:                                               ; preds = %16
  %19 = lshr i64 %9, 3
  %20 = and i32 %10, 7
  %21 = lshr exact i32 128, %20
  %22 = getelementptr inbounds nuw i8, ptr %0, i64 200
  %23 = load ptr, ptr %22, align 8, !tbaa !95
  %24 = and i64 %19, 268435455
  %25 = getelementptr inbounds nuw i8, ptr %23, i64 %24
  %26 = load i8, ptr %25, align 1, !tbaa !96
  %27 = zext i8 %26 to i32
  %28 = and i32 %21, %27
  %.not27 = icmp eq i32 %28, 0
  br i1 %.not27, label %.thread, label %43

29:                                               ; preds = %4, %12
  %30 = icmp sgt i32 %10, -1
  br i1 %30, label %..thread_crit_edge, label %43

..thread_crit_edge:                               ; preds = %29
  %.phi.trans.insert = getelementptr inbounds nuw i8, ptr %0, i64 180
  %.pre = load i32, ptr %.phi.trans.insert, align 4, !tbaa !41
  br label %.thread

.thread:                                          ; preds = %..thread_crit_edge, %16, %18
  %31 = phi i32 [ %.pre, %..thread_crit_edge ], [ %14, %18 ], [ %14, %16 ]
  %.030 = phi i32 [ %10, %..thread_crit_edge ], [ %8, %18 ], [ %8, %16 ]
  %.not28 = icmp sgt i32 %.030, %31
  br i1 %.not28, label %43, label %32

32:                                               ; preds = %.thread
  %33 = lshr i32 %.030, 3
  %34 = and i32 %.030, 7
  %35 = lshr exact i32 128, %34
  %36 = getelementptr inbounds nuw i8, ptr %0, i64 200
  %37 = load ptr, ptr %36, align 8, !tbaa !95
  %38 = zext nneg i32 %33 to i64
  %39 = getelementptr inbounds nuw i8, ptr %37, i64 %38
  %40 = load i8, ptr %39, align 1, !tbaa !96
  %41 = trunc nuw i32 %35 to i8
  %42 = or i8 %40, %41
  store i8 %42, ptr %39, align 1, !tbaa !96
  br label %43

43:                                               ; preds = %29, %.thread, %32, %18
  ret void
}